; Function Attrs: mustprogress nofree nounwind willreturn memory(read, inaccessiblemem: none) uwtable
define hidden noundef zeroext i1 @_ZNK2cv11TiffDecoder14checkSignatureERKNSt7__cxx1112basic_stringIcSt11char_traitsIcESaIcEEE(ptr nonnull readnone align 8 captures(none) %0, ptr noundef nonnull readonly align 8 captures(none) dereferenceable(32) %1) unnamed_addr #9 align 2 personality ptr @__gxx_personality_v0 {
  %3 = getelementptr inbounds nuw i8, ptr %1, i64 8
  %4 = load i64, ptr %3, align 8, !tbaa !72
  %5 = icmp ugt i64 %4, 3
  br i1 %5, label %6, label %15

6:                                                ; preds = %2
  %7 = load ptr, ptr %1, align 8, !tbaa !71
  %bcmp = tail call i32 @bcmp(ptr noundef nonnull dereferenceable(4) %7, ptr noundef nonnull dereferenceable(4) @_ZN2cvL13fmtSignTiffIIE, i64 4)
  %8 = icmp eq i32 %bcmp, 0
  br i1 %8, label %15, label %9

9:                                                ; preds = %6
  %bcmp5 = tail call i32 @bcmp(ptr noundef nonnull dereferenceable(4) %7, ptr noundef nonnull dereferenceable(4) @_ZN2cvL13fmtSignTiffMME, i64 4)
  %10 = icmp eq i32 %bcmp5, 0
  br i1 %10, label %15, label %11

11:                                               ; preds = %9
  %bcmp6 = tail call i32 @bcmp(ptr noundef nonnull dereferenceable(4) %7, ptr noundef nonnull dereferenceable(4) @_ZN2cvL16fmtSignBigTiffIIE, i64 4)
  %12 = icmp eq i32 %bcmp6, 0
  br i1 %12, label %15, label %13

13:                                               ; preds = %11
  %bcmp7 = tail call i32 @bcmp(ptr noundef nonnull dereferenceable(4) %7, ptr noundef nonnull dereferenceable(4) @_ZN2cvL16fmtSignBigTiffMME, i64 4)
  %14 = icmp eq i32 %bcmp7, 0
  br label %15

15:                                               ; preds = %6, %9, %11, %13, %2
  %16 = phi i1 [ false, %2 ], [ true, %11 ], [ true, %9 ], [ true, %6 ], [ %14, %13 ]
  ret i1 %16
}